target datalayout = "e-m:e-p270:32:32-p271:32:32-p272:64:64-i64:64-i128:128-f80:128-n8:16:32:64-S128"
target triple = "x86_64-pc-linux-gnu"

%"class.Json::Value" = type { %"union.Json::Value::ValueHolder", %struct.anon, %"class.Json::Value::Comments", i64, i64 }
%"union.Json::Value::ValueHolder" = type { i64 }
%struct.anon = type { i16, [2 x i8] }
%"class.Json::Value::Comments" = type { %"class.std::unique_ptr" }
%"class.std::unique_ptr" = type { %"struct.std::__uniq_ptr_data" }
%"struct.std::__uniq_ptr_data" = type { %"class.std::__uniq_ptr_impl" }
%"class.std::__uniq_ptr_impl" = type { %"class.std::tuple" }
%"class.std::tuple" = type { %"struct.std::_Tuple_impl" }
%"struct.std::_Tuple_impl" = type { %"struct.std::_Head_base.4" }
%"struct.std::_Head_base.4" = type { ptr }
%"class.open3d::visualization::RenderOptionWithEditing" = type { %"class.open3d::visualization::RenderOption.base", %"class.Eigen::Matrix", %"class.Eigen::Matrix", double, double }
%"class.open3d::visualization::RenderOption.base" = type <{ %"class.open3d::utility::IJsonConvertible", double, double, double, double, double, double, double, double, %"class.Eigen::Matrix", i32, i32, i8, [7 x i8], [4 x %"class.Eigen::Matrix"], [4 x %"class.Eigen::Matrix"], %"class.Eigen::Matrix", [4 x double], [4 x double], [4 x double], double, i32, i8, [3 x i8], i32, i32, i8, i8, [6 x i8], %"class.Eigen::Matrix", double, i32, i32, i8 }>
%"class.open3d::utility::IJsonConvertible" = type { ptr }
%"class.Eigen::Matrix" = type { %"class.Eigen::PlainObjectBase" }
%"class.Eigen::PlainObjectBase" = type { %"class.Eigen::DenseStorage" }
%"class.Eigen::DenseStorage" = type { %"struct.Eigen::internal::plain_array" }
%"struct.Eigen::internal::plain_array" = type { [3 x double] }

@.str = private unnamed_addr constant [33 x i8] c"selection_polygon_boundary_color\00", align 1
@.str.3 = private unnamed_addr constant [29 x i8] c"selection_polygon_mask_color\00", align 1
@.str.4 = private unnamed_addr constant [29 x i8] c"selection_polygon_mask_alpha\00", align 1
@.str.5 = private unnamed_addr constant [30 x i8] c"pointcloud_picker_sphere_size\00", align 1

; Function Attrs: mustprogress ssp uwtable
define noundef zeroext i1 @_ZN6open3d13visualization23RenderOptionWithEditing20ConvertFromJsonValueERKN4Json5ValueE(ptr noundef nonnull align 8 dereferenceable(568) %0, ptr noundef nonnull align 8 dereferenceable(40) %1) unnamed_addr #1 align 2 personality ptr @__gxx_personality_v0 {
  %3 = alloca i1, align 1
  %4 = alloca ptr, align 8
  %5 = alloca ptr, align 8
  %6 = alloca %"class.Json::Value", align 8
  %7 = alloca %"class.Json::Value", align 8
  %8 = alloca ptr, align 8
  %9 = alloca i32, align 4
  %10 = alloca %"class.Json::Value", align 8
  %11 = alloca %"class.Json::Value", align 8
  store ptr %0, ptr %4, align 8, !tbaa !9
  store ptr %1, ptr %5, align 8, !tbaa !11
  %12 = load ptr, ptr %4, align 8
  %13 = load ptr, ptr %5, align 8, !tbaa !11
  %14 = call noundef zeroext i1 @_ZN6open3d13visualization12RenderOption20ConvertFromJsonValueERKN4Json5ValueE(ptr noundef nonnull align 8 dereferenceable(497) %12, ptr noundef nonnull align 8 dereferenceable(40) %13)
  br i1 %14, label %16, label %15

15:                                               ; preds = %2
  store i1 false, ptr %3, align 1
  br label %61

16:                                               ; preds = %2
  %17 = getelementptr inbounds nuw %"class.open3d::visualization::RenderOptionWithEditing", ptr %12, i32 0, i32 1
  %18 = load ptr, ptr %5, align 8, !tbaa !11
  %19 = call noundef nonnull align 8 dereferenceable(40) ptr @_ZNK4Json5ValueixEPKc(ptr noundef nonnull align 8 dereferenceable(40) %18, ptr noundef @.str)
  %20 = call noundef zeroext i1 @_ZN6open3d7utility16IJsonConvertible26EigenVector3dFromJsonArrayERN5Eigen6MatrixIdLi3ELi1ELi0ELi3ELi1EEERKN4Json5ValueE(ptr noundef nonnull align 8 dereferenceable(24) %17, ptr noundef nonnull align 8 dereferenceable(40) %19)
  br i1 %20, label %22, label %21

21:                                               ; preds = %16
  store i1 false, ptr %3, align 1
  br label %61

22:                                               ; preds = %16
  %23 = getelementptr inbounds nuw %"class.open3d::visualization::RenderOptionWithEditing", ptr %12, i32 0, i32 2
  %24 = load ptr, ptr %5, align 8, !tbaa !11
  %25 = call noundef nonnull align 8 dereferenceable(40) ptr @_ZNK4Json5ValueixEPKc(ptr noundef nonnull align 8 dereferenceable(40) %24, ptr noundef @.str.3)
  %26 = call noundef zeroext i1 @_ZN6open3d7utility16IJsonConvertible26EigenVector3dFromJsonArrayERN5Eigen6MatrixIdLi3ELi1ELi0ELi3ELi1EEERKN4Json5ValueE(ptr noundef nonnull align 8 dereferenceable(24) %23, ptr noundef nonnull align 8 dereferenceable(40) %25)
  br i1 %26, label %28, label %27

27:                                               ; preds = %22
  store i1 false, ptr %3, align 1
  br label %61

28:                                               ; preds = %22
  call void @llvm.lifetime.start.p0(i64 40, ptr %6) #7
  %29 = load ptr, ptr %5, align 8, !tbaa !11
  call void @llvm.lifetime.start.p0(i64 40, ptr %7) #7
  %30 = getelementptr inbounds nuw %"class.open3d::visualization::RenderOptionWithEditing", ptr %12, i32 0, i32 3
  %31 = load double, ptr %30, align 8, !tbaa !13
  call void @_ZN4Json5ValueC1Ed(ptr noundef nonnull align 8 dereferenceable(40) %7, double noundef %31)
  invoke void @_ZNK4Json5Value3getEPKcRKS0_(ptr dead_on_unwind writable sret(%"class.Json::Value") align 8 %6, ptr noundef nonnull align 8 dereferenceable(40) %29, ptr noundef @.str.4, ptr noundef nonnull align 8 dereferenceable(40) %7)
          to label %32 unwind label %43

32:                                               ; preds = %28
  %33 = invoke noundef double @_ZNK4Json5Value8asDoubleEv(ptr noundef nonnull align 8 dereferenceable(40) %6)
          to label %34 unwind label %47

34:                                               ; preds = %32
  %35 = getelementptr inbounds nuw %"class.open3d::visualization::RenderOptionWithEditing", ptr %12, i32 0, i32 3
  store double %33, ptr %35, align 8, !tbaa !13
  call void @_ZN4Json5ValueD1Ev(ptr noundef nonnull align 8 dereferenceable(40) %6) #7
  call void @_ZN4Json5ValueD1Ev(ptr noundef nonnull align 8 dereferenceable(40) %7) #7
  call void @llvm.lifetime.end.p0(i64 40, ptr %7) #7
  call void @llvm.lifetime.end.p0(i64 40, ptr %6) #7
  call void @llvm.lifetime.start.p0(i64 40, ptr %10) #7
  %36 = load ptr, ptr %5, align 8, !tbaa !11
  call void @llvm.lifetime.start.p0(i64 40, ptr %11) #7
  %37 = getelementptr inbounds nuw %"class.open3d::visualization::RenderOptionWithEditing", ptr %12, i32 0, i32 3
  %38 = load double, ptr %37, align 8, !tbaa !13
  call void @_ZN4Json5ValueC1Ed(ptr noundef nonnull align 8 dereferenceable(40) %11, double noundef %38)
  invoke void @_ZNK4Json5Value3getEPKcRKS0_(ptr dead_on_unwind writable sret(%"class.Json::Value") align 8 %10, ptr noundef nonnull align 8 dereferenceable(40) %36, ptr noundef @.str.5, ptr noundef nonnull align 8 dereferenceable(40) %11)
          to label %39 unwind label %52

39:                                               ; preds = %34
  %40 = invoke noundef double @_ZNK4Json5Value8asDoubleEv(ptr noundef nonnull align 8 dereferenceable(40) %10)
          to label %41 unwind label %56

41:                                               ; preds = %39
  %42 = getelementptr inbounds nuw %"class.open3d::visualization::RenderOptionWithEditing", ptr %12, i32 0, i32 4
  store double %40, ptr %42, align 8, !tbaa !30
  call void @_ZN4Json5ValueD1Ev(ptr noundef nonnull align 8 dereferenceable(40) %10) #7
  call void @_ZN4Json5ValueD1Ev(ptr noundef nonnull align 8 dereferenceable(40) %11) #7
  call void @llvm.lifetime.end.p0(i64 40, ptr %11) #7
  call void @llvm.lifetime.end.p0(i64 40, ptr %10) #7
  store i1 true, ptr %3, align 1
  br label %61

43:                                               ; preds = %28
  %44 = landingpad { ptr, i32 }
          cleanup
  %45 = extractvalue { ptr, i32 } %44, 0
  store ptr %45, ptr %8, align 8
  %46 = extractvalue { ptr, i32 } %44, 1
  store i32 %46, ptr %9, align 4
  br label %51

47:                                               ; preds = %32
  %48 = landingpad { ptr, i32 }
          cleanup
  %49 = extractvalue { ptr, i32 } %48, 0
  store ptr %49, ptr %8, align 8
  %50 = extractvalue { ptr, i32 } %48, 1
  store i32 %50, ptr %9, align 4
  call void @_ZN4Json5ValueD1Ev(ptr noundef nonnull align 8 dereferenceable(40) %6) #7
  br label %51

51:                                               ; preds = %47, %43
  call void @_ZN4Json5ValueD1Ev(ptr noundef nonnull align 8 dereferenceable(40) %7) #7
  call void @llvm.lifetime.end.p0(i64 40, ptr %7) #7
  call void @llvm.lifetime.end.p0(i64 40, ptr %6) #7
  br label %63

52:                                               ; preds = %34
  %53 = landingpad { ptr, i32 }
          cleanup
  %54 = extractvalue { ptr, i32 } %53, 0
  store ptr %54, ptr %8, align 8
  %55 = extractvalue { ptr, i32 } %53, 1
  store i32 %55, ptr %9, align 4
  br label %60

56:                                               ; preds = %39
  %57 = landingpad { ptr, i32 }
          cleanup
  %58 = extractvalue { ptr, i32 } %57, 0
  store ptr %58, ptr %8, align 8
  %59 = extractvalue { ptr, i32 } %57, 1
  store i32 %59, ptr %9, align 4
  call void @_ZN4Json5ValueD1Ev(ptr noundef nonnull align 8 dereferenceable(40) %10) #7
  br label %60

60:                                               ; preds = %56, %52
  call void @_ZN4Json5ValueD1Ev(ptr noundef nonnull align 8 dereferenceable(40) %11) #7
  call void @llvm.lifetime.end.p0(i64 40, ptr %11) #7
  call void @llvm.lifetime.end.p0(i64 40, ptr %10) #7
  br label %63

61:                                               ; preds = %41, %27, %21, %15
  %62 = load i1, ptr %3, align 1
  ret i1 %62

63:                                               ; preds = %60, %51
  %64 = load ptr, ptr %8, align 8
  %65 = load i32, ptr %9, align 4
  %66 = insertvalue { ptr, i32 } poison, ptr %64, 0
  %67 = insertvalue { ptr, i32 } %66, i32 %65, 1
  resume { ptr, i32 } %67
}