; Function Attrs: mustprogress ssp uwtable
define noundef zeroext i1 @_ZN6open3d13visualization23RenderOptionWithEditing20ConvertFromJsonValueERKN4Json5ValueE(ptr noundef nonnull align 8 dereferenceable(568) %0, ptr noundef nonnull align 8 dereferenceable(40) %1) unnamed_addr #1 align 2 personality ptr @__gxx_personality_v0 {
  %3 = alloca %"class.Json::Value", align 8
  %4 = alloca %"class.Json::Value", align 8
  %5 = alloca %"class.Json::Value", align 8
  %6 = alloca %"class.Json::Value", align 8
  %7 = tail call noundef zeroext i1 @_ZN6open3d13visualization12RenderOption20ConvertFromJsonValueERKN4Json5ValueE(ptr noundef nonnull align 8 dereferenceable(497) %0, ptr noundef nonnull align 8 dereferenceable(40) %1)
  br i1 %7, label %8, label %37

8:                                                ; preds = %2
  %9 = getelementptr inbounds nuw i8, ptr %0, i64 504
  %10 = tail call noundef nonnull align 8 dereferenceable(40) ptr @_ZNK4Json5ValueixEPKc(ptr noundef nonnull align 8 dereferenceable(40) %1, ptr noundef nonnull @.str)
  %11 = tail call noundef zeroext i1 @_ZN6open3d7utility16IJsonConvertible26EigenVector3dFromJsonArrayERN5Eigen6MatrixIdLi3ELi1ELi0ELi3ELi1EEERKN4Json5ValueE(ptr noundef nonnull align 8 dereferenceable(24) %9, ptr noundef nonnull align 8 dereferenceable(40) %10)
  br i1 %11, label %12, label %37

12:                                               ; preds = %8
  %13 = getelementptr inbounds nuw i8, ptr %0, i64 528
  %14 = tail call noundef nonnull align 8 dereferenceable(40) ptr @_ZNK4Json5ValueixEPKc(ptr noundef nonnull align 8 dereferenceable(40) %1, ptr noundef nonnull @.str.3)
  %15 = tail call noundef zeroext i1 @_ZN6open3d7utility16IJsonConvertible26EigenVector3dFromJsonArrayERN5Eigen6MatrixIdLi3ELi1ELi0ELi3ELi1EEERKN4Json5ValueE(ptr noundef nonnull align 8 dereferenceable(24) %13, ptr noundef nonnull align 8 dereferenceable(40) %14)
  br i1 %15, label %16, label %37

16:                                               ; preds = %12
  call void @llvm.lifetime.start.p0(i64 40, ptr nonnull %3) #8
  call void @llvm.lifetime.start.p0(i64 40, ptr nonnull %4) #8
  %17 = getelementptr inbounds nuw i8, ptr %0, i64 552
  %18 = load double, ptr %17, align 8, !tbaa !4
  call void @_ZN4Json5ValueC1Ed(ptr noundef nonnull align 8 dereferenceable(40) %4, double noundef %18)
  invoke void @_ZNK4Json5Value3getEPKcRKS0_(ptr dead_on_unwind nonnull writable sret(%"class.Json::Value") align 8 %3, ptr noundef nonnull align 8 dereferenceable(40) %1, ptr noundef nonnull @.str.4, ptr noundef nonnull align 8 dereferenceable(40) %4)
          to label %19 unwind label %27

19:                                               ; preds = %16
  %20 = invoke noundef double @_ZNK4Json5Value8asDoubleEv(ptr noundef nonnull align 8 dereferenceable(40) %3)
          to label %21 unwind label %29

21:                                               ; preds = %19
  store double %20, ptr %17, align 8, !tbaa !4
  call void @_ZN4Json5ValueD1Ev(ptr noundef nonnull align 8 dereferenceable(40) %3) #8
  call void @_ZN4Json5ValueD1Ev(ptr noundef nonnull align 8 dereferenceable(40) %4) #8
  call void @llvm.lifetime.end.p0(i64 40, ptr nonnull %4) #8
  call void @llvm.lifetime.end.p0(i64 40, ptr nonnull %3) #8
  call void @llvm.lifetime.start.p0(i64 40, ptr nonnull %5) #8
  call void @llvm.lifetime.start.p0(i64 40, ptr nonnull %6) #8
  %22 = load double, ptr %17, align 8, !tbaa !4
  call void @_ZN4Json5ValueC1Ed(ptr noundef nonnull align 8 dereferenceable(40) %6, double noundef %22)
  invoke void @_ZNK4Json5Value3getEPKcRKS0_(ptr dead_on_unwind nonnull writable sret(%"class.Json::Value") align 8 %5, ptr noundef nonnull align 8 dereferenceable(40) %1, ptr noundef nonnull @.str.5, ptr noundef nonnull align 8 dereferenceable(40) %6)
          to label %23 unwind label %32

23:                                               ; preds = %21
  %24 = invoke noundef double @_ZNK4Json5Value8asDoubleEv(ptr noundef nonnull align 8 dereferenceable(40) %5)
          to label %25 unwind label %34

25:                                               ; preds = %23
  %26 = getelementptr inbounds nuw i8, ptr %0, i64 560
  store double %24, ptr %26, align 8, !tbaa !23
  call void @_ZN4Json5ValueD1Ev(ptr noundef nonnull align 8 dereferenceable(40) %5) #8
  call void @_ZN4Json5ValueD1Ev(ptr noundef nonnull align 8 dereferenceable(40) %6) #8
  call void @llvm.lifetime.end.p0(i64 40, ptr nonnull %6) #8
  call void @llvm.lifetime.end.p0(i64 40, ptr nonnull %5) #8
  br label %37

27:                                               ; preds = %16
  %28 = landingpad { ptr, i32 }
          cleanup
  br label %31

29:                                               ; preds = %19
  %30 = landingpad { ptr, i32 }
          cleanup
  call void @_ZN4Json5ValueD1Ev(ptr noundef nonnull align 8 dereferenceable(40) %3) #8
  br label %31

31:                                               ; preds = %29, %27
  %.pn = phi { ptr, i32 } [ %30, %29 ], [ %28, %27 ]
  call void @_ZN4Json5ValueD1Ev(ptr noundef nonnull align 8 dereferenceable(40) %4) #8
  call void @llvm.lifetime.end.p0(i64 40, ptr nonnull %4) #8
  call void @llvm.lifetime.end.p0(i64 40, ptr nonnull %3) #8
  br label %38

32:                                               ; preds = %21
  %33 = landingpad { ptr, i32 }
          cleanup
  br label %36

34:                                               ; preds = %23
  %35 = landingpad { ptr, i32 }
          cleanup
  call void @_ZN4Json5ValueD1Ev(ptr noundef nonnull align 8 dereferenceable(40) %5) #8
  br label %36

36:                                               ; preds = %34, %32
  %.pn13 = phi { ptr, i32 } [ %35, %34 ], [ %33, %32 ]
  call void @_ZN4Json5ValueD1Ev(ptr noundef nonnull align 8 dereferenceable(40) %6) #8
  call void @llvm.lifetime.end.p0(i64 40, ptr nonnull %6) #8
  call void @llvm.lifetime.end.p0(i64 40, ptr nonnull %5) #8
  br label %38

37:                                               ; preds = %12, %8, %2, %25
  %.011 = phi i1 [ true, %25 ], [ false, %2 ], [ false, %8 ], [ false, %12 ]
  ret i1 %.011

38:                                               ; preds = %36, %31
  %.pn13.pn = phi { ptr, i32 } [ %.pn13, %36 ], [ %.pn, %31 ]
  resume { ptr, i32 } %.pn13.pn
}